target datalayout = "e-m:e-p270:32:32-p271:32:32-p272:64:64-i64:64-i128:128-f80:128-n8:16:32:64-S128"
target triple = "x86_64-pc-linux-gnu"

; Function Attrs: mustprogress nounwind uwtable
define noundef i32 @_ZN6google8protobuf16strtou32_adaptorEPKcPPci(ptr noundef %0, ptr noundef %1, i32 noundef %2) #6 {
  %4 = alloca i32, align 4
  %5 = alloca ptr, align 8
  %6 = alloca ptr, align 8
  %7 = alloca i32, align 4
  %8 = alloca i32, align 4
  %9 = alloca i64, align 8
  %10 = alloca i32, align 4
  store ptr %0, ptr %5, align 8, !tbaa !8
  store ptr %1, ptr %6, align 8, !tbaa !49
  store i32 %2, ptr %7, align 4, !tbaa !15
  call void @llvm.lifetime.start.p0(i64 4, ptr %8) #3
  %11 = call ptr @__errno_location() #23
  %12 = load i32, ptr %11, align 4, !tbaa !15
  store i32 %12, ptr %8, align 4, !tbaa !15
  %13 = call ptr @__errno_location() #23
  store i32 0, ptr %13, align 4, !tbaa !15
  call void @llvm.lifetime.start.p0(i64 8, ptr %9) #3
  %14 = load ptr, ptr %5, align 8, !tbaa !8
  %15 = load ptr, ptr %6, align 8, !tbaa !49
  %16 = load i32, ptr %7, align 4, !tbaa !15
  %17 = call i64 @strtoul(ptr noundef %14, ptr noundef %15, i32 noundef %16) #3
  store i64 %17, ptr %9, align 8, !tbaa !13
  %18 = call ptr @__errno_location() #23
  %19 = load i32, ptr %18, align 4, !tbaa !15
  %20 = icmp eq i32 %19, 34
  br i1 %20, label %21, label %25

21:                                               ; preds = %3
  %22 = load i64, ptr %9, align 8, !tbaa !13
  %23 = icmp eq i64 %22, -1
  br i1 %23, label %24, label %25

24:                                               ; preds = %21
  store i32 -1, ptr %4, align 4
  store i32 1, ptr %10, align 4
  br label %45

25:                                               ; preds = %21, %3
  %26 = call ptr @__errno_location() #23
  %27 = load i32, ptr %26, align 4, !tbaa !15
  %28 = icmp eq i32 %27, 0
  br i1 %28, label %29, label %34

29:                                               ; preds = %25
  %30 = load i64, ptr %9, align 8, !tbaa !13
  %31 = icmp ugt i64 %30, 4294967295
  br i1 %31, label %32, label %34

32:                                               ; preds = %29
  %33 = call ptr @__errno_location() #23
  store i32 34, ptr %33, align 4, !tbaa !15
  store i32 -1, ptr %4, align 4
  store i32 1, ptr %10, align 4
  br label %45

34:                                               ; preds = %29, %25
  br label %35

35:                                               ; preds = %34
  %36 = call ptr @__errno_location() #23
  %37 = load i32, ptr %36, align 4, !tbaa !15
  %38 = icmp eq i32 %37, 0
  br i1 %38, label %39, label %42

39:                                               ; preds = %35
  %40 = load i32, ptr %8, align 4, !tbaa !15
  %41 = call ptr @__errno_location() #23
  store i32 %40, ptr %41, align 4, !tbaa !15
  br label %42

42:                                               ; preds = %39, %35
  %43 = load i64, ptr %9, align 8, !tbaa !13
  %44 = trunc i64 %43 to i32
  store i32 %44, ptr %4, align 4
  store i32 1, ptr %10, align 4
  br label %45

45:                                               ; preds = %42, %32, %24
  call void @llvm.lifetime.end.p0(i64 8, ptr %9) #3
  call void @llvm.lifetime.end.p0(i64 4, ptr %8) #3
  %46 = load i32, ptr %4, align 4
  ret i32 %46
}